#include <math.h>
#include <stdio.h>
#include <stdlib.h>
#include <string.h>

int main()
{
	char u[50][100];
	char buf[5000];

	int i=0,j,k,a[50],c=0,d=100, n, ret ;
    int index;
	int max, min;

	gets(buf);
	j = 0;
	
	int len = strlen(buf);
	//printf("  ---  buf=%d\n", strlen(buf));

	buf[strlen(buf)] = ' ';
	buf[strlen(buf)+1] = '\0';
	
	for (i = 0; i < len; i++) {
		index = 0;
		while (buf[i]!=' ') {
			u[j][index] = buf[i];
			index++;
			i++;
		}
		u[j][index] = '\0';
		a[j] = strlen(u[j]);
		//printf("%s, %d, %d\n", u[j], a[j], j);
		j++;
		//printf("i = %d\n", i);
	}
    //printf("-----\n");
	n = j;
    for(i=0;i<n;i++)
	{
		if(a[i]>c) {
			c = a[i];
			max = i;
		}
	}
	for(j=0;j<n;j++)
	{
		if(a[j]<d) 
		{
			d = a[j];
			min = j;
		}

	}
	//printf("%d, %d\n", max, min);

    printf("%s\n",u[max]);
	printf("%s",u[min]);

    return 0;
}