; ModuleID = '24/1054.c'
source_filename = "24/1054.c"
target datalayout = "e-m:e-p270:32:32-p271:32:32-p272:64:64-i64:64-f80:128-n8:16:32:64-S128"
target triple = "x86_64-pc-linux-gnu"

@.str = private unnamed_addr constant [4 x i8] c"%s\0A\00", align 1
@.str.1 = private unnamed_addr constant [3 x i8] c"%s\00", align 1

; Function Attrs: noinline nounwind uwtable
define dso_local i32 @main() #0 {
  %1 = alloca i32, align 4
  %2 = alloca [50 x [100 x i8]], align 16
  %3 = alloca [5000 x i8], align 16
  %4 = alloca i32, align 4
  %5 = alloca i32, align 4
  %6 = alloca i32, align 4
  %7 = alloca [50 x i32], align 16
  %8 = alloca i32, align 4
  %9 = alloca i32, align 4
  %10 = alloca i32, align 4
  %11 = alloca i32, align 4
  %12 = alloca i32, align 4
  %13 = alloca i32, align 4
  %14 = alloca i32, align 4
  %15 = alloca i32, align 4
  store i32 0, i32* %1, align 4
  store i32 0, i32* %4, align 4
  store i32 0, i32* %8, align 4
  store i32 100, i32* %9, align 4
  %16 = getelementptr inbounds [5000 x i8], [5000 x i8]* %3, i64 0, i64 0
  %17 = call i32 (i8*, ...) bitcast (i32 (...)* @gets to i32 (i8*, ...)*)(i8* %16)
  store i32 0, i32* %5, align 4
  %18 = getelementptr inbounds [5000 x i8], [5000 x i8]* %3, i64 0, i64 0
  %19 = call i64 @strlen(i8* %18) #3
  %20 = trunc i64 %19 to i32
  store i32 %20, i32* %15, align 4
  %21 = getelementptr inbounds [5000 x i8], [5000 x i8]* %3, i64 0, i64 0
  %22 = call i64 @strlen(i8* %21) #3
  %23 = getelementptr inbounds [5000 x i8], [5000 x i8]* %3, i64 0, i64 %22
  store i8 32, i8* %23, align 1
  %24 = getelementptr inbounds [5000 x i8], [5000 x i8]* %3, i64 0, i64 0
  %25 = call i64 @strlen(i8* %24) #3
  %26 = add i64 %25, 1
  %27 = getelementptr inbounds [5000 x i8], [5000 x i8]* %3, i64 0, i64 %26
  store i8 0, i8* %27, align 1
  store i32 0, i32* %4, align 4
  br label %28

28:                                               ; preds = %73, %0
  %29 = load i32, i32* %4, align 4
  %30 = load i32, i32* %15, align 4
  %31 = icmp slt i32 %29, %30
  br i1 %31, label %32, label %76

32:                                               ; preds = %28
  store i32 0, i32* %12, align 4
  br label %33

33:                                               ; preds = %40, %32
  %34 = load i32, i32* %4, align 4
  %35 = sext i32 %34 to i64
  %36 = getelementptr inbounds [5000 x i8], [5000 x i8]* %3, i64 0, i64 %35
  %37 = load i8, i8* %36, align 1
  %38 = sext i8 %37 to i32
  %39 = icmp ne i32 %38, 32
  br i1 %39, label %40, label %55

40:                                               ; preds = %33
  %41 = load i32, i32* %4, align 4
  %42 = sext i32 %41 to i64
  %43 = getelementptr inbounds [5000 x i8], [5000 x i8]* %3, i64 0, i64 %42
  %44 = load i8, i8* %43, align 1
  %45 = load i32, i32* %5, align 4
  %46 = sext i32 %45 to i64
  %47 = getelementptr inbounds [50 x [100 x i8]], [50 x [100 x i8]]* %2, i64 0, i64 %46
  %48 = load i32, i32* %12, align 4
  %49 = sext i32 %48 to i64
  %50 = getelementptr inbounds [100 x i8], [100 x i8]* %47, i64 0, i64 %49
  store i8 %44, i8* %50, align 1
  %51 = load i32, i32* %12, align 4
  %52 = add nsw i32 %51, 1
  store i32 %52, i32* %12, align 4
  %53 = load i32, i32* %4, align 4
  %54 = add nsw i32 %53, 1
  store i32 %54, i32* %4, align 4
  br label %33

55:                                               ; preds = %33
  %56 = load i32, i32* %5, align 4
  %57 = sext i32 %56 to i64
  %58 = getelementptr inbounds [50 x [100 x i8]], [50 x [100 x i8]]* %2, i64 0, i64 %57
  %59 = load i32, i32* %12, align 4
  %60 = sext i32 %59 to i64
  %61 = getelementptr inbounds [100 x i8], [100 x i8]* %58, i64 0, i64 %60
  store i8 0, i8* %61, align 1
  %62 = load i32, i32* %5, align 4
  %63 = sext i32 %62 to i64
  %64 = getelementptr inbounds [50 x [100 x i8]], [50 x [100 x i8]]* %2, i64 0, i64 %63
  %65 = getelementptr inbounds [100 x i8], [100 x i8]* %64, i64 0, i64 0
  %66 = call i64 @strlen(i8* %65) #3
  %67 = trunc i64 %66 to i32
  %68 = load i32, i32* %5, align 4
  %69 = sext i32 %68 to i64
  %70 = getelementptr inbounds [50 x i32], [50 x i32]* %7, i64 0, i64 %69
  store i32 %67, i32* %70, align 4
  %71 = load i32, i32* %5, align 4
  %72 = add nsw i32 %71, 1
  store i32 %72, i32* %5, align 4
  br label %73

73:                                               ; preds = %55
  %74 = load i32, i32* %4, align 4
  %75 = add nsw i32 %74, 1
  store i32 %75, i32* %4, align 4
  br label %28

76:                                               ; preds = %28
  %77 = load i32, i32* %5, align 4
  store i32 %77, i32* %10, align 4
  store i32 0, i32* %4, align 4
  br label %78

78:                                               ; preds = %96, %76
  %79 = load i32, i32* %4, align 4
  %80 = load i32, i32* %10, align 4
  %81 = icmp slt i32 %79, %80
  br i1 %81, label %82, label %99

82:                                               ; preds = %78
  %83 = load i32, i32* %4, align 4
  %84 = sext i32 %83 to i64
  %85 = getelementptr inbounds [50 x i32], [50 x i32]* %7, i64 0, i64 %84
  %86 = load i32, i32* %85, align 4
  %87 = load i32, i32* %8, align 4
  %88 = icmp sgt i32 %86, %87
  br i1 %88, label %89, label %95

89:                                               ; preds = %82
  %90 = load i32, i32* %4, align 4
  %91 = sext i32 %90 to i64
  %92 = getelementptr inbounds [50 x i32], [50 x i32]* %7, i64 0, i64 %91
  %93 = load i32, i32* %92, align 4
  store i32 %93, i32* %8, align 4
  %94 = load i32, i32* %4, align 4
  store i32 %94, i32* %13, align 4
  br label %95

95:                                               ; preds = %89, %82
  br label %96

96:                                               ; preds = %95
  %97 = load i32, i32* %4, align 4
  %98 = add nsw i32 %97, 1
  store i32 %98, i32* %4, align 4
  br label %78

99:                                               ; preds = %78
  store i32 0, i32* %5, align 4
  br label %100

100:                                              ; preds = %118, %99
  %101 = load i32, i32* %5, align 4
  %102 = load i32, i32* %10, align 4
  %103 = icmp slt i32 %101, %102
  br i1 %103, label %104, label %121

104:                                              ; preds = %100
  %105 = load i32, i32* %5, align 4
  %106 = sext i32 %105 to i64
  %107 = getelementptr inbounds [50 x i32], [50 x i32]* %7, i64 0, i64 %106
  %108 = load i32, i32* %107, align 4
  %109 = load i32, i32* %9, align 4
  %110 = icmp slt i32 %108, %109
  br i1 %110, label %111, label %117

111:                                              ; preds = %104
  %112 = load i32, i32* %5, align 4
  %113 = sext i32 %112 to i64
  %114 = getelementptr inbounds [50 x i32], [50 x i32]* %7, i64 0, i64 %113
  %115 = load i32, i32* %114, align 4
  store i32 %115, i32* %9, align 4
  %116 = load i32, i32* %5, align 4
  store i32 %116, i32* %14, align 4
  br label %117

117:                                              ; preds = %111, %104
  br label %118

118:                                              ; preds = %117
  %119 = load i32, i32* %5, align 4
  %120 = add nsw i32 %119, 1
  store i32 %120, i32* %5, align 4
  br label %100

121:                                              ; preds = %100
  %122 = load i32, i32* %13, align 4
  %123 = sext i32 %122 to i64
  %124 = getelementptr inbounds [50 x [100 x i8]], [50 x [100 x i8]]* %2, i64 0, i64 %123
  %125 = getelementptr inbounds [100 x i8], [100 x i8]* %124, i64 0, i64 0
  %126 = call i32 (i8*, ...) @printf(i8* getelementptr inbounds ([4 x i8], [4 x i8]* @.str, i64 0, i64 0), i8* %125)
  %127 = load i32, i32* %14, align 4
  %128 = sext i32 %127 to i64
  %129 = getelementptr inbounds [50 x [100 x i8]], [50 x [100 x i8]]* %2, i64 0, i64 %128
  %130 = getelementptr inbounds [100 x i8], [100 x i8]* %129, i64 0, i64 0
  %131 = call i32 (i8*, ...) @printf(i8* getelementptr inbounds ([3 x i8], [3 x i8]* @.str.1, i64 0, i64 0), i8* %130)
  ret i32 0
}

declare dso_local i32 @gets(...) #1

; Function Attrs: nounwind readonly
declare dso_local i64 @strlen(i8*) #2

declare dso_local i32 @printf(i8*, ...) #1


!llvm.module.flags = !{!0}
!llvm.ident = !{!1}

!0 = !{i32 1, !"wchar_size", i32 4}
!1 = !{!"clang version 10.0.0-4ubuntu1 "}
